; ModuleID = '20/1138.c'
source_filename = "20/1138.c"
target datalayout = "e-m:e-p270:32:32-p271:32:32-p272:64:64-i64:64-f80:128-n8:16:32:64-S128"
target triple = "x86_64-pc-linux-gnu"

@.str = private unnamed_addr constant [6 x i8] c"%s %s\00", align 1
@.str.1 = private unnamed_addr constant [4 x i8] c"%s\0A\00", align 1

; Function Attrs: noinline nounwind uwtable
define dso_local i32 @main() #0 {
  %1 = alloca i32, align 4
  %2 = alloca i32, align 4
  %3 = alloca i32, align 4
  %4 = alloca i32, align 4
  %5 = alloca i32, align 4
  %6 = alloca [15 x i8], align 1
  %7 = alloca [4 x i8], align 1
  store i32 0, i32* %1, align 4
  %8 = bitcast [15 x i8]* %6 to i8*
  call void @llvm.memset.p0i8.i64(i8* align 1 %8, i8 0, i64 15, i1 false)
  %9 = bitcast [4 x i8]* %7 to i8*
  call void @llvm.memset.p0i8.i64(i8* align 1 %9, i8 0, i64 4, i1 false)
  br label %10

10:                                               ; preds = %85, %0
  %11 = getelementptr inbounds [15 x i8], [15 x i8]* %6, i64 0, i64 0
  %12 = getelementptr inbounds [4 x i8], [4 x i8]* %7, i64 0, i64 0
  %13 = call i32 (i8*, ...) @__isoc99_scanf(i8* getelementptr inbounds ([6 x i8], [6 x i8]* @.str, i64 0, i64 0), i8* %11, i8* %12)
  %14 = icmp ne i32 %13, -1
  br i1 %14, label %15, label %86

15:                                               ; preds = %10
  %16 = getelementptr inbounds [15 x i8], [15 x i8]* %6, i64 0, i64 0
  %17 = call i64 @strlen(i8* %16) #4
  %18 = trunc i64 %17 to i32
  store i32 %18, i32* %3, align 4
  %19 = getelementptr inbounds [15 x i8], [15 x i8]* %6, i64 0, i64 0
  %20 = load i32, i32* %3, align 4
  %21 = call i32 @findmax(i8* %19, i32 %20)
  store i32 %21, i32* %2, align 4
  %22 = load i32, i32* %3, align 4
  %23 = sub nsw i32 %22, 1
  store i32 %23, i32* %5, align 4
  br label %24

24:                                               ; preds = %37, %15
  %25 = load i32, i32* %5, align 4
  %26 = load i32, i32* %2, align 4
  %27 = icmp sgt i32 %25, %26
  br i1 %27, label %28, label %40

28:                                               ; preds = %24
  %29 = load i32, i32* %5, align 4
  %30 = sext i32 %29 to i64
  %31 = getelementptr inbounds [15 x i8], [15 x i8]* %6, i64 0, i64 %30
  %32 = load i8, i8* %31, align 1
  %33 = load i32, i32* %5, align 4
  %34 = add nsw i32 %33, 3
  %35 = sext i32 %34 to i64
  %36 = getelementptr inbounds [15 x i8], [15 x i8]* %6, i64 0, i64 %35
  store i8 %32, i8* %36, align 1
  br label %37

37:                                               ; preds = %28
  %38 = load i32, i32* %5, align 4
  %39 = add nsw i32 %38, -1
  store i32 %39, i32* %5, align 4
  br label %24

40:                                               ; preds = %24
  %41 = load i32, i32* %2, align 4
  %42 = add nsw i32 %41, 1
  store i32 %42, i32* %5, align 4
  store i32 0, i32* %4, align 4
  br label %43

43:                                               ; preds = %56, %40
  %44 = load i32, i32* %5, align 4
  %45 = load i32, i32* %2, align 4
  %46 = add nsw i32 %45, 4
  %47 = icmp slt i32 %44, %46
  br i1 %47, label %48, label %61

48:                                               ; preds = %43
  %49 = load i32, i32* %4, align 4
  %50 = sext i32 %49 to i64
  %51 = getelementptr inbounds [4 x i8], [4 x i8]* %7, i64 0, i64 %50
  %52 = load i8, i8* %51, align 1
  %53 = load i32, i32* %5, align 4
  %54 = sext i32 %53 to i64
  %55 = getelementptr inbounds [15 x i8], [15 x i8]* %6, i64 0, i64 %54
  store i8 %52, i8* %55, align 1
  br label %56

56:                                               ; preds = %48
  %57 = load i32, i32* %5, align 4
  %58 = add nsw i32 %57, 1
  store i32 %58, i32* %5, align 4
  %59 = load i32, i32* %4, align 4
  %60 = add nsw i32 %59, 1
  store i32 %60, i32* %4, align 4
  br label %43

61:                                               ; preds = %43
  %62 = getelementptr inbounds [15 x i8], [15 x i8]* %6, i64 0, i64 0
  %63 = call i32 (i8*, ...) @printf(i8* getelementptr inbounds ([4 x i8], [4 x i8]* @.str.1, i64 0, i64 0), i8* %62)
  store i32 0, i32* %2, align 4
  br label %64

64:                                               ; preds = %71, %61
  %65 = load i32, i32* %2, align 4
  %66 = icmp slt i32 %65, 15
  br i1 %66, label %67, label %74

67:                                               ; preds = %64
  %68 = load i32, i32* %2, align 4
  %69 = sext i32 %68 to i64
  %70 = getelementptr inbounds [15 x i8], [15 x i8]* %6, i64 0, i64 %69
  store i8 0, i8* %70, align 1
  br label %71

71:                                               ; preds = %67
  %72 = load i32, i32* %2, align 4
  %73 = add nsw i32 %72, 1
  store i32 %73, i32* %2, align 4
  br label %64

74:                                               ; preds = %64
  store i32 0, i32* %2, align 4
  br label %75

75:                                               ; preds = %82, %74
  %76 = load i32, i32* %2, align 4
  %77 = icmp slt i32 %76, 4
  br i1 %77, label %78, label %85

78:                                               ; preds = %75
  %79 = load i32, i32* %2, align 4
  %80 = sext i32 %79 to i64
  %81 = getelementptr inbounds [4 x i8], [4 x i8]* %7, i64 0, i64 %80
  store i8 0, i8* %81, align 1
  br label %82

82:                                               ; preds = %78
  %83 = load i32, i32* %2, align 4
  %84 = add nsw i32 %83, 1
  store i32 %84, i32* %2, align 4
  br label %75

85:                                               ; preds = %75
  br label %10

86:                                               ; preds = %10
  ret i32 0
}

; Function Attrs: argmemonly nounwind willreturn
declare void @llvm.memset.p0i8.i64(i8* nocapture writeonly, i8, i64, i1 immarg) #1

declare dso_local i32 @__isoc99_scanf(i8*, ...) #2

; Function Attrs: nounwind readonly
declare dso_local i64 @strlen(i8*) #3

; Function Attrs: noinline nounwind uwtable
define dso_local i32 @findmax(i8* %0, i32 %1) #0 {
  %3 = alloca i32, align 4
  %4 = alloca i8*, align 8
  %5 = alloca i32, align 4
  %6 = alloca i32, align 4
  %7 = alloca i8, align 1
  store i8* %0, i8** %4, align 8
  store i32 %1, i32* %5, align 4
  %8 = load i8*, i8** %4, align 8
  %9 = getelementptr inbounds i8, i8* %8, i64 0
  %10 = load i8, i8* %9, align 1
  store i8 %10, i8* %7, align 1
  store i32 0, i32* %6, align 4
  br label %11

11:                                               ; preds = %35, %2
  %12 = load i32, i32* %6, align 4
  %13 = load i32, i32* %5, align 4
  %14 = sub nsw i32 %13, 1
  %15 = icmp slt i32 %12, %14
  br i1 %15, label %16, label %38

16:                                               ; preds = %11
  %17 = load i8, i8* %7, align 1
  %18 = sext i8 %17 to i32
  %19 = load i8*, i8** %4, align 8
  %20 = load i32, i32* %6, align 4
  %21 = add nsw i32 %20, 1
  %22 = sext i32 %21 to i64
  %23 = getelementptr inbounds i8, i8* %19, i64 %22
  %24 = load i8, i8* %23, align 1
  %25 = sext i8 %24 to i32
  %26 = icmp slt i32 %18, %25
  br i1 %26, label %27, label %34

27:                                               ; preds = %16
  %28 = load i8*, i8** %4, align 8
  %29 = load i32, i32* %6, align 4
  %30 = add nsw i32 %29, 1
  %31 = sext i32 %30 to i64
  %32 = getelementptr inbounds i8, i8* %28, i64 %31
  %33 = load i8, i8* %32, align 1
  store i8 %33, i8* %7, align 1
  br label %34

34:                                               ; preds = %27, %16
  br label %35

35:                                               ; preds = %34
  %36 = load i32, i32* %6, align 4
  %37 = add nsw i32 %36, 1
  store i32 %37, i32* %6, align 4
  br label %11

38:                                               ; preds = %11
  store i32 0, i32* %6, align 4
  br label %39

39:                                               ; preds = %56, %38
  %40 = load i32, i32* %6, align 4
  %41 = load i32, i32* %5, align 4
  %42 = icmp slt i32 %40, %41
  br i1 %42, label %43, label %59

43:                                               ; preds = %39
  %44 = load i8*, i8** %4, align 8
  %45 = load i32, i32* %6, align 4
  %46 = sext i32 %45 to i64
  %47 = getelementptr inbounds i8, i8* %44, i64 %46
  %48 = load i8, i8* %47, align 1
  %49 = sext i8 %48 to i32
  %50 = load i8, i8* %7, align 1
  %51 = sext i8 %50 to i32
  %52 = icmp eq i32 %49, %51
  br i1 %52, label %53, label %55

53:                                               ; preds = %43
  %54 = load i32, i32* %6, align 4
  store i32 %54, i32* %3, align 4
  br label %59

55:                                               ; preds = %43
  br label %56

56:                                               ; preds = %55
  %57 = load i32, i32* %6, align 4
  %58 = add nsw i32 %57, 1
  store i32 %58, i32* %6, align 4
  br label %39

59:                                               ; preds = %53, %39
  %60 = load i32, i32* %3, align 4
  ret i32 %60
}

declare dso_local i32 @printf(i8*, ...) #2


!llvm.module.flags = !{!0}
!llvm.ident = !{!1}

!0 = !{i32 1, !"wchar_size", i32 4}
!1 = !{!"clang version 10.0.0-4ubuntu1 "}
